target datalayout = "e-m:e-p270:32:32-p271:32:32-p272:64:64-i64:64-i128:128-f80:128-n8:16:32:64-S128"
target triple = "x86_64-unknown-linux-gnu"

@.str = private unnamed_addr constant [8 x i8] c"unicode\00", align 1
@.str.1 = private unnamed_addr constant [5 x i8] c"true\00", align 1
@.str.2 = private unnamed_addr constant [6 x i8] c"false\00", align 1
@.str.9 = private unnamed_addr constant [11 x i8] c"type_check\00", align 1
@.str.10 = private unnamed_addr constant [18 x i8] c"well_sorted_check\00", align 1
@.str.11 = private unnamed_addr constant [12 x i8] c"auto_config\00", align 1
@.str.12 = private unnamed_addr constant [6 x i8] c"proof\00", align 1
@.str.13 = private unnamed_addr constant [6 x i8] c"model\00", align 1
@.str.14 = private unnamed_addr constant [15 x i8] c"model_validate\00", align 1
@.str.15 = private unnamed_addr constant [12 x i8] c"dump_models\00", align 1
@.str.16 = private unnamed_addr constant [6 x i8] c"stats\00", align 1
@.str.17 = private unnamed_addr constant [6 x i8] c"trace\00", align 1
@.str.18 = private unnamed_addr constant [16 x i8] c"trace_file_name\00", align 1
@.str.19 = private unnamed_addr constant [15 x i8] c"dot_proof_file\00", align 1
@.str.20 = private unnamed_addr constant [11 x i8] c"unsat_core\00", align 1
@.str.21 = private unnamed_addr constant [16 x i8] c"debug_ref_count\00", align 1
@.str.22 = private unnamed_addr constant [18 x i8] c"smtlib2_compliant\00", align 1
@.str.23 = private unnamed_addr constant [9 x i8] c"encoding\00", align 1
@.str.31 = private unnamed_addr constant [7 x i8] c"z3.log\00", align 1
@.str.32 = private unnamed_addr constant [10 x i8] c"proof.dot\00", align 1
@.str.33 = private unnamed_addr constant [13 x i8] c"type checker\00", align 1
@.str.34 = private unnamed_addr constant [43 x i8] c"type checker (alias for well_sorted_check)\00", align 1
@.str.35 = private unnamed_addr constant [63 x i8] c"use heuristics to automatically select solver and configure it\00", align 1
@.str.36 = private unnamed_addr constant [36 x i8] c"validate models produced by solvers\00", align 1
@.str.37 = private unnamed_addr constant [43 x i8] c"dump models whenever check-sat returns sat\00", align 1
@.str.38 = private unnamed_addr constant [25 x i8] c"trace generation for VCC\00", align 1
@.str.39 = private unnamed_addr constant [41 x i8] c"trace out file name (see option 'trace')\00", align 1
@.str.40 = private unnamed_addr constant [41 x i8] c"file in which to output graphical proofs\00", align 1
@.str.41 = private unnamed_addr constant [41 x i8] c"debug support for AST reference counting\00", align 1
@.str.42 = private unnamed_addr constant [38 x i8] c"enable/disable SMT-LIB 2.0 compliance\00", align 1
@.str.43 = private unnamed_addr constant [26 x i8] c"enable/disable statistics\00", align 1
@.str.44 = private unnamed_addr constant [51 x i8] c"string encoding used internally: unicode|bmp|ascii\00", align 1
@.str.45 = private unnamed_addr constant [68 x i8] c"proof generation, it must be enabled when the Z3 context is created\00", align 1
@.str.46 = private unnamed_addr constant [87 x i8] c"model generation for solvers, this parameter can be overwritten when creating a solver\00", align 1
@.str.47 = private unnamed_addr constant [147 x i8] c"unsat-core generation for solvers, this parameter can be overwritten when creating a solver, not every solver in Z3 supports unsat core generation\00", align 1

; Function Attrs: mustprogress uwtable
define hidden void @_ZN14context_params27collect_solver_param_descrsER12param_descrs(ptr noundef nonnull align 8 dereferenceable(8) %d) #4 align 2 {
entry:
  %d.addr = alloca ptr, align 8
  store ptr %d, ptr %d.addr, align 8
  %0 = load ptr, ptr %d.addr, align 8
  call void @_ZN12param_descrs6insertEPKc12cmd_arg_kindS1_S1_S1_(ptr noundef nonnull align 8 dereferenceable(8) %0, ptr noundef @.str.12, i32 noundef 1, ptr noundef @.str.45, ptr noundef @.str.2, ptr noundef null)
  %1 = load ptr, ptr %d.addr, align 8
  call void @_ZN12param_descrs6insertEPKc12cmd_arg_kindS1_S1_S1_(ptr noundef nonnull align 8 dereferenceable(8) %1, ptr noundef @.str.13, i32 noundef 1, ptr noundef @.str.46, ptr noundef @.str.1, ptr noundef null)
  %2 = load ptr, ptr %d.addr, align 8
  call void @_ZN12param_descrs6insertEPKc12cmd_arg_kindS1_S1_S1_(ptr noundef nonnull align 8 dereferenceable(8) %2, ptr noundef @.str.20, i32 noundef 1, ptr noundef @.str.47, ptr noundef @.str.2, ptr noundef null)
  ret void
}

; Function Attrs: mustprogress uwtable
define hidden void @_ZN14context_params20collect_param_descrsER12param_descrs(ptr noundef nonnull align 8 dereferenceable(8) %d) #4 align 2 {
entry:
  %d.addr = alloca ptr, align 8
  store ptr %d, ptr %d.addr, align 8
  %0 = load ptr, ptr %d.addr, align 8
  call void @_Z13insert_rlimitR12param_descrs(ptr noundef nonnull align 8 dereferenceable(8) %0)
  %1 = load ptr, ptr %d.addr, align 8
  call void @_Z14insert_timeoutR12param_descrs(ptr noundef nonnull align 8 dereferenceable(8) %1)
  %2 = load ptr, ptr %d.addr, align 8
  call void @_ZN12param_descrs6insertEPKc12cmd_arg_kindS1_S1_S1_(ptr noundef nonnull align 8 dereferenceable(8) %2, ptr noundef @.str.10, i32 noundef 1, ptr noundef @.str.33, ptr noundef @.str.2, ptr noundef null)
  %3 = load ptr, ptr %d.addr, align 8
  call void @_ZN12param_descrs6insertEPKc12cmd_arg_kindS1_S1_S1_(ptr noundef nonnull align 8 dereferenceable(8) %3, ptr noundef @.str.9, i32 noundef 1, ptr noundef @.str.34, ptr noundef @.str.1, ptr noundef null)
  %4 = load ptr, ptr %d.addr, align 8
  call void @_ZN12param_descrs6insertEPKc12cmd_arg_kindS1_S1_S1_(ptr noundef nonnull align 8 dereferenceable(8) %4, ptr noundef @.str.11, i32 noundef 1, ptr noundef @.str.35, ptr noundef @.str.1, ptr noundef null)
  %5 = load ptr, ptr %d.addr, align 8
  call void @_ZN12param_descrs6insertEPKc12cmd_arg_kindS1_S1_S1_(ptr noundef nonnull align 8 dereferenceable(8) %5, ptr noundef @.str.14, i32 noundef 1, ptr noundef @.str.36, ptr noundef @.str.2, ptr noundef null)
  %6 = load ptr, ptr %d.addr, align 8
  call void @_ZN12param_descrs6insertEPKc12cmd_arg_kindS1_S1_S1_(ptr noundef nonnull align 8 dereferenceable(8) %6, ptr noundef @.str.15, i32 noundef 1, ptr noundef @.str.37, ptr noundef @.str.2, ptr noundef null)
  %7 = load ptr, ptr %d.addr, align 8
  call void @_ZN12param_descrs6insertEPKc12cmd_arg_kindS1_S1_S1_(ptr noundef nonnull align 8 dereferenceable(8) %7, ptr noundef @.str.17, i32 noundef 1, ptr noundef @.str.38, ptr noundef @.str.2, ptr noundef null)
  %8 = load ptr, ptr %d.addr, align 8
  call void @_ZN12param_descrs6insertEPKc12cmd_arg_kindS1_S1_S1_(ptr noundef nonnull align 8 dereferenceable(8) %8, ptr noundef @.str.18, i32 noundef 5, ptr noundef @.str.39, ptr noundef @.str.31, ptr noundef null)
  %9 = load ptr, ptr %d.addr, align 8
  call void @_ZN12param_descrs6insertEPKc12cmd_arg_kindS1_S1_S1_(ptr noundef nonnull align 8 dereferenceable(8) %9, ptr noundef @.str.19, i32 noundef 5, ptr noundef @.str.40, ptr noundef @.str.32, ptr noundef null)
  %10 = load ptr, ptr %d.addr, align 8
  call void @_ZN12param_descrs6insertEPKc12cmd_arg_kindS1_S1_S1_(ptr noundef nonnull align 8 dereferenceable(8) %10, ptr noundef @.str.21, i32 noundef 1, ptr noundef @.str.41, ptr noundef @.str.2, ptr noundef null)
  %11 = load ptr, ptr %d.addr, align 8
  call void @_ZN12param_descrs6insertEPKc12cmd_arg_kindS1_S1_S1_(ptr noundef nonnull align 8 dereferenceable(8) %11, ptr noundef @.str.22, i32 noundef 1, ptr noundef @.str.42, ptr noundef @.str.2, ptr noundef null)
  %12 = load ptr, ptr %d.addr, align 8
  call void @_ZN12param_descrs6insertEPKc12cmd_arg_kindS1_S1_S1_(ptr noundef nonnull align 8 dereferenceable(8) %12, ptr noundef @.str.16, i32 noundef 1, ptr noundef @.str.43, ptr noundef @.str.2, ptr noundef null)
  %13 = load ptr, ptr %d.addr, align 8
  call void @_ZN12param_descrs6insertEPKc12cmd_arg_kindS1_S1_S1_(ptr noundef nonnull align 8 dereferenceable(8) %13, ptr noundef @.str.23, i32 noundef 5, ptr noundef @.str.44, ptr noundef @.str, ptr noundef null)
  %14 = load ptr, ptr %d.addr, align 8
  call void @_ZN14context_params27collect_solver_param_descrsER12param_descrs(ptr noundef nonnull align 8 dereferenceable(8) %14)
  ret void
}