; Function Attrs: mustprogress uwtable
define hidden void @_ZN14context_params20collect_param_descrsER12param_descrs(ptr noundef nonnull align 8 dereferenceable(8) %d) local_unnamed_addr #3 align 2 {
entry:
  tail call void @_Z13insert_rlimitR12param_descrs(ptr noundef nonnull align 8 dereferenceable(8) %d)
  tail call void @_Z14insert_timeoutR12param_descrs(ptr noundef nonnull align 8 dereferenceable(8) %d)
  tail call void @_ZN12param_descrs6insertEPKc12cmd_arg_kindS1_S1_S1_(ptr noundef nonnull align 8 dereferenceable(8) %d, ptr noundef nonnull @.str.10, i32 noundef 1, ptr noundef nonnull @.str.33, ptr noundef nonnull @.str.2, ptr noundef null)
  tail call void @_ZN12param_descrs6insertEPKc12cmd_arg_kindS1_S1_S1_(ptr noundef nonnull align 8 dereferenceable(8) %d, ptr noundef nonnull @.str.9, i32 noundef 1, ptr noundef nonnull @.str.34, ptr noundef nonnull @.str.1, ptr noundef null)
  tail call void @_ZN12param_descrs6insertEPKc12cmd_arg_kindS1_S1_S1_(ptr noundef nonnull align 8 dereferenceable(8) %d, ptr noundef nonnull @.str.11, i32 noundef 1, ptr noundef nonnull @.str.35, ptr noundef nonnull @.str.1, ptr noundef null)
  tail call void @_ZN12param_descrs6insertEPKc12cmd_arg_kindS1_S1_S1_(ptr noundef nonnull align 8 dereferenceable(8) %d, ptr noundef nonnull @.str.14, i32 noundef 1, ptr noundef nonnull @.str.36, ptr noundef nonnull @.str.2, ptr noundef null)
  tail call void @_ZN12param_descrs6insertEPKc12cmd_arg_kindS1_S1_S1_(ptr noundef nonnull align 8 dereferenceable(8) %d, ptr noundef nonnull @.str.15, i32 noundef 1, ptr noundef nonnull @.str.37, ptr noundef nonnull @.str.2, ptr noundef null)
  tail call void @_ZN12param_descrs6insertEPKc12cmd_arg_kindS1_S1_S1_(ptr noundef nonnull align 8 dereferenceable(8) %d, ptr noundef nonnull @.str.17, i32 noundef 1, ptr noundef nonnull @.str.38, ptr noundef nonnull @.str.2, ptr noundef null)
  tail call void @_ZN12param_descrs6insertEPKc12cmd_arg_kindS1_S1_S1_(ptr noundef nonnull align 8 dereferenceable(8) %d, ptr noundef nonnull @.str.18, i32 noundef 5, ptr noundef nonnull @.str.39, ptr noundef nonnull @.str.31, ptr noundef null)
  tail call void @_ZN12param_descrs6insertEPKc12cmd_arg_kindS1_S1_S1_(ptr noundef nonnull align 8 dereferenceable(8) %d, ptr noundef nonnull @.str.19, i32 noundef 5, ptr noundef nonnull @.str.40, ptr noundef nonnull @.str.32, ptr noundef null)
  tail call void @_ZN12param_descrs6insertEPKc12cmd_arg_kindS1_S1_S1_(ptr noundef nonnull align 8 dereferenceable(8) %d, ptr noundef nonnull @.str.21, i32 noundef 1, ptr noundef nonnull @.str.41, ptr noundef nonnull @.str.2, ptr noundef null)
  tail call void @_ZN12param_descrs6insertEPKc12cmd_arg_kindS1_S1_S1_(ptr noundef nonnull align 8 dereferenceable(8) %d, ptr noundef nonnull @.str.22, i32 noundef 1, ptr noundef nonnull @.str.42, ptr noundef nonnull @.str.2, ptr noundef null)
  tail call void @_ZN12param_descrs6insertEPKc12cmd_arg_kindS1_S1_S1_(ptr noundef nonnull align 8 dereferenceable(8) %d, ptr noundef nonnull @.str.16, i32 noundef 1, ptr noundef nonnull @.str.43, ptr noundef nonnull @.str.2, ptr noundef null)
  tail call void @_ZN12param_descrs6insertEPKc12cmd_arg_kindS1_S1_S1_(ptr noundef nonnull align 8 dereferenceable(8) %d, ptr noundef nonnull @.str.23, i32 noundef 5, ptr noundef nonnull @.str.44, ptr noundef nonnull @.str, ptr noundef null)
  tail call void @_ZN12param_descrs6insertEPKc12cmd_arg_kindS1_S1_S1_(ptr noundef nonnull align 8 dereferenceable(8) %d, ptr noundef nonnull @.str.12, i32 noundef 1, ptr noundef nonnull @.str.45, ptr noundef nonnull @.str.2, ptr noundef null)
  tail call void @_ZN12param_descrs6insertEPKc12cmd_arg_kindS1_S1_S1_(ptr noundef nonnull align 8 dereferenceable(8) %d, ptr noundef nonnull @.str.13, i32 noundef 1, ptr noundef nonnull @.str.46, ptr noundef nonnull @.str.1, ptr noundef null)
  tail call void @_ZN12param_descrs6insertEPKc12cmd_arg_kindS1_S1_S1_(ptr noundef nonnull align 8 dereferenceable(8) %d, ptr noundef nonnull @.str.20, i32 noundef 1, ptr noundef nonnull @.str.47, ptr noundef nonnull @.str.2, ptr noundef null)
  ret void
}